target datalayout = "e-m:e-p270:32:32-p271:32:32-p272:64:64-i64:64-i128:128-f80:128-n8:16:32:64-S128"
target triple = "x86_64-unknown-linux-gnu"

%"class.icu_75::UObject" = type { ptr }
%"class.icu_75::MessagePattern" = type <{ %"class.icu_75::UObject", i32, [4 x i8], %"class.icu_75::UnicodeString", ptr, ptr, i32, [4 x i8], ptr, ptr, i32, i8, i8, i8, i8 }>
%"class.icu_75::UnicodeString" = type { %"class.icu_75::Replaceable", %"union.icu_75::UnicodeString::StackBufferOrFields" }
%"class.icu_75::Replaceable" = type { %"class.icu_75::UObject" }
%"union.icu_75::UnicodeString::StackBufferOrFields" = type { %struct.anon.0, [32 x i8] }
%struct.anon.0 = type { i16, i32, i32, ptr }
%struct.anon = type { i16, [27 x i16] }
%"class.icu_75::MessagePattern::Part" = type { i32, i32, i16, i16, i32 }

; Function Attrs: mustprogress nounwind uwtable
define linkonce_odr noundef i32 @_ZNK6icu_7513UnicodeString14getShortLengthEv(ptr noundef nonnull align 8 dereferenceable(64) %this) #0 comdat align 2 {
entry:
  %this.addr = alloca ptr, align 8
  store ptr %this, ptr %this.addr, align 8
  %this1 = load ptr, ptr %this.addr, align 8
  %fUnion = getelementptr inbounds %"class.icu_75::UnicodeString", ptr %this1, i32 0, i32 1
  %fLengthAndFlags = getelementptr inbounds %struct.anon.0, ptr %fUnion, i32 0, i32 0
  %0 = load i16, ptr %fLengthAndFlags, align 8
  %conv = sext i16 %0 to i32
  %shr = ashr i32 %conv, 5
  ret i32 %shr
}

; Function Attrs: mustprogress nounwind uwtable
define linkonce_odr noundef signext i8 @_ZNK6icu_7513UnicodeString14hasShortLengthEv(ptr noundef nonnull align 8 dereferenceable(64) %this) #0 comdat align 2 {
entry:
  %this.addr = alloca ptr, align 8
  store ptr %this, ptr %this.addr, align 8
  %this1 = load ptr, ptr %this.addr, align 8
  %fUnion = getelementptr inbounds %"class.icu_75::UnicodeString", ptr %this1, i32 0, i32 1
  %fLengthAndFlags = getelementptr inbounds %struct.anon.0, ptr %fUnion, i32 0, i32 0
  %0 = load i16, ptr %fLengthAndFlags, align 8
  %conv = sext i16 %0 to i32
  %cmp = icmp sge i32 %conv, 0
  %conv2 = zext i1 %cmp to i8
  ret i8 %conv2
}

; Function Attrs: mustprogress uwtable
define linkonce_odr noundef i32 @_ZNK6icu_7513UnicodeString6lengthEv(ptr noundef nonnull align 8 dereferenceable(64) %this) #1 comdat align 2 {
entry:
  %this.addr = alloca ptr, align 8
  store ptr %this, ptr %this.addr, align 8
  %this1 = load ptr, ptr %this.addr, align 8
  %call = call noundef signext i8 @_ZNK6icu_7513UnicodeString14hasShortLengthEv(ptr noundef nonnull align 8 dereferenceable(64) %this1)
  %tobool = icmp ne i8 %call, 0
  br i1 %tobool, label %cond.true, label %cond.false

cond.true:                                        ; preds = %entry
  %call2 = call noundef i32 @_ZNK6icu_7513UnicodeString14getShortLengthEv(ptr noundef nonnull align 8 dereferenceable(64) %this1)
  br label %cond.end

cond.false:                                       ; preds = %entry
  %fUnion = getelementptr inbounds %"class.icu_75::UnicodeString", ptr %this1, i32 0, i32 1
  %fLength = getelementptr inbounds %struct.anon.0, ptr %fUnion, i32 0, i32 1
  %0 = load i32, ptr %fLength, align 4
  br label %cond.end

cond.end:                                         ; preds = %cond.false, %cond.true
  %cond = phi i32 [ %call2, %cond.true ], [ %0, %cond.false ]
  ret i32 %cond
}

; Function Attrs: mustprogress nounwind uwtable
define linkonce_odr noundef ptr @_ZNK6icu_7513UnicodeString13getArrayStartEv(ptr noundef nonnull align 8 dereferenceable(64) %this) #0 comdat align 2 {
entry:
  %this.addr = alloca ptr, align 8
  store ptr %this, ptr %this.addr, align 8
  %this1 = load ptr, ptr %this.addr, align 8
  %fUnion = getelementptr inbounds %"class.icu_75::UnicodeString", ptr %this1, i32 0, i32 1
  %fLengthAndFlags = getelementptr inbounds %struct.anon.0, ptr %fUnion, i32 0, i32 0
  %0 = load i16, ptr %fLengthAndFlags, align 8
  %conv = sext i16 %0 to i32
  %and = and i32 %conv, 2
  %tobool = icmp ne i32 %and, 0
  br i1 %tobool, label %cond.true, label %cond.false

cond.true:                                        ; preds = %entry
  %fUnion2 = getelementptr inbounds %"class.icu_75::UnicodeString", ptr %this1, i32 0, i32 1
  %fBuffer = getelementptr inbounds %struct.anon, ptr %fUnion2, i32 0, i32 1
  %arraydecay = getelementptr inbounds [27 x i16], ptr %fBuffer, i64 0, i64 0
  br label %cond.end

cond.false:                                       ; preds = %entry
  %fUnion3 = getelementptr inbounds %"class.icu_75::UnicodeString", ptr %this1, i32 0, i32 1
  %fArray = getelementptr inbounds %struct.anon.0, ptr %fUnion3, i32 0, i32 3
  %1 = load ptr, ptr %fArray, align 8
  br label %cond.end

cond.end:                                         ; preds = %cond.false, %cond.true
  %cond = phi ptr [ %arraydecay, %cond.true ], [ %1, %cond.false ]
  ret ptr %cond
}

; Function Attrs: mustprogress uwtable
define linkonce_odr void @_ZNK6icu_7513UnicodeString10pinIndicesERiS1_(ptr noundef nonnull align 8 dereferenceable(64) %this, ptr noundef nonnull align 4 dereferenceable(4) %start, ptr noundef nonnull align 4 dereferenceable(4) %_length) #1 comdat align 2 {
entry:
  %this.addr = alloca ptr, align 8
  %start.addr = alloca ptr, align 8
  %_length.addr = alloca ptr, align 8
  %len = alloca i32, align 4
  store ptr %this, ptr %this.addr, align 8
  store ptr %start, ptr %start.addr, align 8
  store ptr %_length, ptr %_length.addr, align 8
  %this1 = load ptr, ptr %this.addr, align 8
  %call = call noundef i32 @_ZNK6icu_7513UnicodeString6lengthEv(ptr noundef nonnull align 8 dereferenceable(64) %this1)
  store i32 %call, ptr %len, align 4
  %0 = load ptr, ptr %start.addr, align 8
  %1 = load i32, ptr %0, align 4
  %cmp = icmp slt i32 %1, 0
  br i1 %cmp, label %if.then, label %if.else

if.then:                                          ; preds = %entry
  %2 = load ptr, ptr %start.addr, align 8
  store i32 0, ptr %2, align 4
  br label %if.end4

if.else:                                          ; preds = %entry
  %3 = load ptr, ptr %start.addr, align 8
  %4 = load i32, ptr %3, align 4
  %5 = load i32, ptr %len, align 4
  %cmp2 = icmp sgt i32 %4, %5
  br i1 %cmp2, label %if.then3, label %if.end

if.then3:                                         ; preds = %if.else
  %6 = load i32, ptr %len, align 4
  %7 = load ptr, ptr %start.addr, align 8
  store i32 %6, ptr %7, align 4
  br label %if.end

if.end:                                           ; preds = %if.then3, %if.else
  br label %if.end4

if.end4:                                          ; preds = %if.end, %if.then
  %8 = load ptr, ptr %_length.addr, align 8
  %9 = load i32, ptr %8, align 4
  %cmp5 = icmp slt i32 %9, 0
  br i1 %cmp5, label %if.then6, label %if.else7

if.then6:                                         ; preds = %if.end4
  %10 = load ptr, ptr %_length.addr, align 8
  store i32 0, ptr %10, align 4
  br label %if.end12

if.else7:                                         ; preds = %if.end4
  %11 = load ptr, ptr %_length.addr, align 8
  %12 = load i32, ptr %11, align 4
  %13 = load i32, ptr %len, align 4
  %14 = load ptr, ptr %start.addr, align 8
  %15 = load i32, ptr %14, align 4
  %sub = sub nsw i32 %13, %15
  %cmp8 = icmp sgt i32 %12, %sub
  br i1 %cmp8, label %if.then9, label %if.end11

if.then9:                                         ; preds = %if.else7
  %16 = load i32, ptr %len, align 4
  %17 = load ptr, ptr %start.addr, align 8
  %18 = load i32, ptr %17, align 4
  %sub10 = sub nsw i32 %16, %18
  %19 = load ptr, ptr %_length.addr, align 8
  store i32 %sub10, ptr %19, align 4
  br label %if.end11

if.end11:                                         ; preds = %if.then9, %if.else7
  br label %if.end12

if.end12:                                         ; preds = %if.end11, %if.then6
  ret void
}

; Function Attrs: mustprogress nounwind uwtable
define linkonce_odr noundef signext i8 @_ZNK6icu_7513UnicodeString7isBogusEv(ptr noundef nonnull align 8 dereferenceable(64) %this) #0 comdat align 2 {
entry:
  %this.addr = alloca ptr, align 8
  store ptr %this, ptr %this.addr, align 8
  %this1 = load ptr, ptr %this.addr, align 8
  %fUnion = getelementptr inbounds %"class.icu_75::UnicodeString", ptr %this1, i32 0, i32 1
  %fLengthAndFlags = getelementptr inbounds %struct.anon.0, ptr %fUnion, i32 0, i32 0
  %0 = load i16, ptr %fLengthAndFlags, align 8
  %conv = sext i16 %0 to i32
  %and = and i32 %conv, 1
  %conv2 = trunc i32 %and to i8
  ret i8 %conv2
}

; Function Attrs: mustprogress uwtable
define linkonce_odr noundef signext i8 @_ZNK6icu_7513UnicodeString9doCompareEiiRKS0_ii(ptr noundef nonnull align 8 dereferenceable(64) %this, i32 noundef %start, i32 noundef %thisLength, ptr noundef nonnull align 8 dereferenceable(64) %srcText, i32 noundef %srcStart, i32 noundef %srcLength) #1 comdat align 2 {
entry:
  %retval = alloca i8, align 1
  %this.addr = alloca ptr, align 8
  %start.addr = alloca i32, align 4
  %thisLength.addr = alloca i32, align 4
  %srcText.addr = alloca ptr, align 8
  %srcStart.addr = alloca i32, align 4
  %srcLength.addr = alloca i32, align 4
  store ptr %this, ptr %this.addr, align 8
  store i32 %start, ptr %start.addr, align 4
  store i32 %thisLength, ptr %thisLength.addr, align 4
  store ptr %srcText, ptr %srcText.addr, align 8
  store i32 %srcStart, ptr %srcStart.addr, align 4
  store i32 %srcLength, ptr %srcLength.addr, align 4
  %this1 = load ptr, ptr %this.addr, align 8
  %0 = load ptr, ptr %srcText.addr, align 8
  %call = call noundef signext i8 @_ZNK6icu_7513UnicodeString7isBogusEv(ptr noundef nonnull align 8 dereferenceable(64) %0)
  %tobool = icmp ne i8 %call, 0
  br i1 %tobool, label %if.then, label %if.else

if.then:                                          ; preds = %entry
  %call2 = call noundef signext i8 @_ZNK6icu_7513UnicodeString7isBogusEv(ptr noundef nonnull align 8 dereferenceable(64) %this1)
  %tobool3 = icmp ne i8 %call2, 0
  %lnot = xor i1 %tobool3, true
  %conv = zext i1 %lnot to i8
  store i8 %conv, ptr %retval, align 1
  br label %return

if.else:                                          ; preds = %entry
  %1 = load ptr, ptr %srcText.addr, align 8
  call void @_ZNK6icu_7513UnicodeString10pinIndicesERiS1_(ptr noundef nonnull align 8 dereferenceable(64) %1, ptr noundef nonnull align 4 dereferenceable(4) %srcStart.addr, ptr noundef nonnull align 4 dereferenceable(4) %srcLength.addr)
  %2 = load i32, ptr %start.addr, align 4
  %3 = load i32, ptr %thisLength.addr, align 4
  %4 = load ptr, ptr %srcText.addr, align 8
  %call4 = call noundef ptr @_ZNK6icu_7513UnicodeString13getArrayStartEv(ptr noundef nonnull align 8 dereferenceable(64) %4)
  %5 = load i32, ptr %srcStart.addr, align 4
  %6 = load i32, ptr %srcLength.addr, align 4
  %call5 = call noundef signext i8 @_ZNK6icu_7513UnicodeString9doCompareEiiPKDsii(ptr noundef nonnull align 8 dereferenceable(64) %this1, i32 noundef %2, i32 noundef %3, ptr noundef %call4, i32 noundef %5, i32 noundef %6)
  store i8 %call5, ptr %retval, align 1
  br label %return

return:                                           ; preds = %if.else, %if.then
  %7 = load i8, ptr %retval, align 1
  ret i8 %7
}

; Function Attrs: mustprogress uwtable
define linkonce_odr noundef signext i8 @_ZNK6icu_7513UnicodeString7compareEiiRKS0_ii(ptr noundef nonnull align 8 dereferenceable(64) %this, i32 noundef %start, i32 noundef %_length, ptr noundef nonnull align 8 dereferenceable(64) %srcText, i32 noundef %srcStart, i32 noundef %srcLength) #1 comdat align 2 {
entry:
  %this.addr = alloca ptr, align 8
  %start.addr = alloca i32, align 4
  %_length.addr = alloca i32, align 4
  %srcText.addr = alloca ptr, align 8
  %srcStart.addr = alloca i32, align 4
  %srcLength.addr = alloca i32, align 4
  store ptr %this, ptr %this.addr, align 8
  store i32 %start, ptr %start.addr, align 4
  store i32 %_length, ptr %_length.addr, align 4
  store ptr %srcText, ptr %srcText.addr, align 8
  store i32 %srcStart, ptr %srcStart.addr, align 4
  store i32 %srcLength, ptr %srcLength.addr, align 4
  %this1 = load ptr, ptr %this.addr, align 8
  %0 = load i32, ptr %start.addr, align 4
  %1 = load i32, ptr %_length.addr, align 4
  %2 = load ptr, ptr %srcText.addr, align 8
  %3 = load i32, ptr %srcStart.addr, align 4
  %4 = load i32, ptr %srcLength.addr, align 4
  %call = call noundef signext i8 @_ZNK6icu_7513UnicodeString9doCompareEiiRKS0_ii(ptr noundef nonnull align 8 dereferenceable(64) %this1, i32 noundef %0, i32 noundef %1, ptr noundef nonnull align 8 dereferenceable(64) %2, i32 noundef %3, i32 noundef %4)
  ret i8 %call
}

; Function Attrs: mustprogress nounwind uwtable
define linkonce_odr noundef i32 @_ZNK6icu_7514MessagePattern4Part8getIndexEv(ptr noundef nonnull align 4 dereferenceable(16) %this) #0 comdat align 2 {
entry:
  %this.addr = alloca ptr, align 8
  store ptr %this, ptr %this.addr, align 8
  %this1 = load ptr, ptr %this.addr, align 8
  %index = getelementptr inbounds %"class.icu_75::MessagePattern::Part", ptr %this1, i32 0, i32 1
  %0 = load i32, ptr %index, align 4
  ret i32 %0
}

; Function Attrs: mustprogress nounwind uwtable
define linkonce_odr noundef i32 @_ZNK6icu_7514MessagePattern4Part7getTypeEv(ptr noundef nonnull align 4 dereferenceable(16) %this) #0 comdat align 2 {
entry:
  %this.addr = alloca ptr, align 8
  store ptr %this, ptr %this.addr, align 8
  %this1 = load ptr, ptr %this.addr, align 8
  %type = getelementptr inbounds %"class.icu_75::MessagePattern::Part", ptr %this1, i32 0, i32 0
  %0 = load i32, ptr %type, align 4
  ret i32 %0
}

; Function Attrs: mustprogress nounwind uwtable
define linkonce_odr noundef i32 @_ZNK6icu_7514MessagePattern4Part8getLimitEv(ptr noundef nonnull align 4 dereferenceable(16) %this) #0 comdat align 2 {
entry:
  %this.addr = alloca ptr, align 8
  store ptr %this, ptr %this.addr, align 8
  %this1 = load ptr, ptr %this.addr, align 8
  %index = getelementptr inbounds %"class.icu_75::MessagePattern::Part", ptr %this1, i32 0, i32 1
  %0 = load i32, ptr %index, align 4
  %length = getelementptr inbounds %"class.icu_75::MessagePattern::Part", ptr %this1, i32 0, i32 2
  %1 = load i16, ptr %length, align 4
  %conv = zext i16 %1 to i32
  %add = add nsw i32 %0, %conv
  ret i32 %add
}

; Function Attrs: mustprogress nounwind uwtable
define linkonce_odr noundef nonnull align 4 dereferenceable(16) ptr @_ZNK6icu_7514MessagePattern7getPartEi(ptr noundef nonnull align 8 dereferenceable(127) %this, i32 noundef %i) #0 comdat align 2 {
entry:
  %this.addr = alloca ptr, align 8
  %i.addr = alloca i32, align 4
  store ptr %this, ptr %this.addr, align 8
  store i32 %i, ptr %i.addr, align 4
  %this1 = load ptr, ptr %this.addr, align 8
  %parts = getelementptr inbounds %"class.icu_75::MessagePattern", ptr %this1, i32 0, i32 5
  %0 = load ptr, ptr %parts, align 8
  %1 = load i32, ptr %i.addr, align 4
  %idxprom = sext i32 %1 to i64
  %arrayidx = getelementptr inbounds %"class.icu_75::MessagePattern::Part", ptr %0, i64 %idxprom
  ret ptr %arrayidx
}

; Function Attrs: mustprogress nounwind uwtable
define linkonce_odr noundef nonnull align 8 dereferenceable(64) ptr @_ZNK6icu_7514MessagePattern16getPatternStringEv(ptr noundef nonnull align 8 dereferenceable(127) %this) #0 comdat align 2 {
entry:
  %this.addr = alloca ptr, align 8
  store ptr %this, ptr %this.addr, align 8
  %this1 = load ptr, ptr %this.addr, align 8
  %msg = getelementptr inbounds %"class.icu_75::MessagePattern", ptr %this1, i32 0, i32 3
  ret ptr %msg
}

; Function Attrs: mustprogress uwtable
define noundef i32 @_ZN6icu_7512ChoiceFormat25matchStringUntilLimitPartERKNS_14MessagePatternEiiRKNS_13UnicodeStringEi(ptr noundef nonnull align 8 dereferenceable(127) %pattern, i32 noundef %partIndex, i32 noundef %limitPartIndex, ptr noundef nonnull align 8 dereferenceable(64) %source, i32 noundef %sourceOffset) #1 align 2 {
entry:
  %retval = alloca i32, align 4
  %pattern.addr = alloca ptr, align 8
  %partIndex.addr = alloca i32, align 4
  %limitPartIndex.addr = alloca i32, align 4
  %source.addr = alloca ptr, align 8
  %sourceOffset.addr = alloca i32, align 4
  %matchingSourceLength = alloca i32, align 4
  %msgString = alloca ptr, align 8
  %prevIndex = alloca i32, align 4
  %part = alloca ptr, align 8
  %index = alloca i32, align 4
  %length = alloca i32, align 4
  store ptr %pattern, ptr %pattern.addr, align 8
  store i32 %partIndex, ptr %partIndex.addr, align 4
  store i32 %limitPartIndex, ptr %limitPartIndex.addr, align 4
  store ptr %source, ptr %source.addr, align 8
  store i32 %sourceOffset, ptr %sourceOffset.addr, align 4
  store i32 0, ptr %matchingSourceLength, align 4
  %0 = load ptr, ptr %pattern.addr, align 8
  %call = call noundef nonnull align 8 dereferenceable(64) ptr @_ZNK6icu_7514MessagePattern16getPatternStringEv(ptr noundef nonnull align 8 dereferenceable(127) %0)
  store ptr %call, ptr %msgString, align 8
  %1 = load ptr, ptr %pattern.addr, align 8
  %2 = load i32, ptr %partIndex.addr, align 4
  %call1 = call noundef nonnull align 4 dereferenceable(16) ptr @_ZNK6icu_7514MessagePattern7getPartEi(ptr noundef nonnull align 8 dereferenceable(127) %1, i32 noundef %2)
  %call2 = call noundef i32 @_ZNK6icu_7514MessagePattern4Part8getLimitEv(ptr noundef nonnull align 4 dereferenceable(16) %call1)
  store i32 %call2, ptr %prevIndex, align 4
  br label %for.cond

for.cond:                                         ; preds = %if.end15, %entry
  %3 = load ptr, ptr %pattern.addr, align 8
  %4 = load i32, ptr %partIndex.addr, align 4
  %inc = add nsw i32 %4, 1
  store i32 %inc, ptr %partIndex.addr, align 4
  %call3 = call noundef nonnull align 4 dereferenceable(16) ptr @_ZNK6icu_7514MessagePattern7getPartEi(ptr noundef nonnull align 8 dereferenceable(127) %3, i32 noundef %inc)
  store ptr %call3, ptr %part, align 8
  %5 = load i32, ptr %partIndex.addr, align 4
  %6 = load i32, ptr %limitPartIndex.addr, align 4
  %cmp = icmp eq i32 %5, %6
  br i1 %cmp, label %if.then, label %lor.lhs.false

lor.lhs.false:                                    ; preds = %for.cond
  %7 = load ptr, ptr %part, align 8
  %call4 = call noundef i32 @_ZNK6icu_7514MessagePattern4Part7getTypeEv(ptr noundef nonnull align 4 dereferenceable(16) %7)
  %cmp5 = icmp eq i32 %call4, 2
  br i1 %cmp5, label %if.then, label %if.end15

if.then:                                          ; preds = %lor.lhs.false, %for.cond
  %8 = load ptr, ptr %part, align 8
  %call6 = call noundef i32 @_ZNK6icu_7514MessagePattern4Part8getIndexEv(ptr noundef nonnull align 4 dereferenceable(16) %8)
  store i32 %call6, ptr %index, align 4
  %9 = load i32, ptr %index, align 4
  %10 = load i32, ptr %prevIndex, align 4
  %sub = sub nsw i32 %9, %10
  store i32 %sub, ptr %length, align 4
  %11 = load i32, ptr %length, align 4
  %cmp7 = icmp ne i32 %11, 0
  br i1 %cmp7, label %land.lhs.true, label %if.end

land.lhs.true:                                    ; preds = %if.then
  %12 = load ptr, ptr %source.addr, align 8
  %13 = load i32, ptr %sourceOffset.addr, align 4
  %14 = load i32, ptr %length, align 4
  %15 = load ptr, ptr %msgString, align 8
  %16 = load i32, ptr %prevIndex, align 4
  %17 = load i32, ptr %length, align 4
  %call8 = call noundef signext i8 @_ZNK6icu_7513UnicodeString7compareEiiRKS0_ii(ptr noundef nonnull align 8 dereferenceable(64) %12, i32 noundef %13, i32 noundef %14, ptr noundef nonnull align 8 dereferenceable(64) %15, i32 noundef %16, i32 noundef %17)
  %conv = sext i8 %call8 to i32
  %cmp9 = icmp ne i32 0, %conv
  br i1 %cmp9, label %if.then10, label %if.end

if.then10:                                        ; preds = %land.lhs.true
  store i32 -1, ptr %retval, align 4
  br label %return

if.end:                                           ; preds = %land.lhs.true, %if.then
  %18 = load i32, ptr %length, align 4
  %19 = load i32, ptr %matchingSourceLength, align 4
  %add = add nsw i32 %19, %18
  store i32 %add, ptr %matchingSourceLength, align 4
  %20 = load i32, ptr %partIndex.addr, align 4
  %21 = load i32, ptr %limitPartIndex.addr, align 4
  %cmp11 = icmp eq i32 %20, %21
  br i1 %cmp11, label %if.then12, label %if.end13

if.then12:                                        ; preds = %if.end
  %22 = load i32, ptr %matchingSourceLength, align 4
  store i32 %22, ptr %retval, align 4
  br label %return

if.end13:                                         ; preds = %if.end
  %23 = load ptr, ptr %part, align 8
  %call14 = call noundef i32 @_ZNK6icu_7514MessagePattern4Part8getLimitEv(ptr noundef nonnull align 4 dereferenceable(16) %23)
  store i32 %call14, ptr %prevIndex, align 4
  br label %if.end15

if.end15:                                         ; preds = %if.end13, %lor.lhs.false
  br label %for.cond, !llvm.loop !14

return:                                           ; preds = %if.then12, %if.then10
  %24 = load i32, ptr %retval, align 4
  ret i32 %24
}