; Function Attrs: mustprogress uwtable
define noundef i32 @_ZN6icu_7512ChoiceFormat25matchStringUntilLimitPartERKNS_14MessagePatternEiiRKNS_13UnicodeStringEi(ptr noundef nonnull align 8 dereferenceable(127) %pattern, i32 noundef %partIndex, i32 noundef %limitPartIndex, ptr noundef nonnull align 8 dereferenceable(64) %source, i32 noundef %sourceOffset) local_unnamed_addr #1 align 2 {
entry:
  %parts.i = getelementptr inbounds i8, ptr %pattern, i64 88
  %0 = load ptr, ptr %parts.i, align 8
  %idxprom.i = sext i32 %partIndex to i64
  %arrayidx.i = getelementptr inbounds %"class.icu_75::MessagePattern::Part", ptr %0, i64 %idxprom.i
  %index.i = getelementptr inbounds i8, ptr %arrayidx.i, i64 4
  %1 = load i32, ptr %index.i, align 4
  %length.i = getelementptr inbounds i8, ptr %arrayidx.i, i64 8
  %2 = load i16, ptr %length.i, align 4
  %conv.i = zext i16 %2 to i32
  %add.i = add nsw i32 %1, %conv.i
  %fUnion.i.i.i = getelementptr inbounds i8, ptr %pattern, i64 24
  %fUnion.i3.i.i = getelementptr inbounds i8, ptr %source, i64 8
  %fLength.i.i.i.i = getelementptr inbounds i8, ptr %pattern, i64 28
  %fBuffer.i.i.i = getelementptr inbounds i8, ptr %pattern, i64 26
  %fArray.i.i.i = getelementptr inbounds i8, ptr %pattern, i64 40
  %sext = sext i32 %limitPartIndex to i64
  br label %for.cond.outer

for.cond.outer:                                   ; preds = %if.end13, %entry
  %.pre23.ph = phi ptr [ %.pre.pre, %if.end13 ], [ %0, %entry ]
  %indvars.iv.ph = phi i64 [ %indvars.iv.next, %if.end13 ], [ %idxprom.i, %entry ]
  %prevIndex.0.ph = phi i32 [ %add.i21, %if.end13 ], [ %add.i, %entry ]
  %matchingSourceLength.0.ph = phi i32 [ %add, %if.end13 ], [ 0, %entry ]
  br label %for.cond

for.cond:                                         ; preds = %for.cond.outer, %lor.lhs.false
  %indvars.iv = phi i64 [ %indvars.iv.next, %lor.lhs.false ], [ %indvars.iv.ph, %for.cond.outer ]
  %indvars.iv.next = add nsw i64 %indvars.iv, 1
  %arrayidx.i16 = getelementptr inbounds %"class.icu_75::MessagePattern::Part", ptr %.pre23.ph, i64 %indvars.iv.next
  %3 = icmp eq i64 %indvars.iv.next, %sext
  br i1 %3, label %if.then, label %lor.lhs.false

lor.lhs.false:                                    ; preds = %for.cond
  %4 = load i32, ptr %arrayidx.i16, align 4
  %cmp5 = icmp eq i32 %4, 2
  br i1 %cmp5, label %if.then, label %for.cond, !llvm.loop !14

if.then:                                          ; preds = %lor.lhs.false, %for.cond
  %index.i17 = getelementptr inbounds i8, ptr %arrayidx.i16, i64 4
  %5 = load i32, ptr %index.i17, align 4
  %sub = sub nsw i32 %5, %prevIndex.0.ph
  %cmp7.not = icmp eq i32 %5, %prevIndex.0.ph
  br i1 %cmp7.not, label %if.end, label %land.lhs.true

land.lhs.true:                                    ; preds = %if.then
  %6 = load i16, ptr %fUnion.i.i.i, align 8
  %conv2.i10.i.i = and i16 %6, 1
  %tobool.not.i.i = icmp eq i16 %conv2.i10.i.i, 0
  br i1 %tobool.not.i.i, label %if.else.i.i, label %if.then.i.i

if.then.i.i:                                      ; preds = %land.lhs.true
  %7 = load i16, ptr %fUnion.i3.i.i, align 8
  %8 = trunc i16 %7 to i8
  %9 = and i8 %8, 1
  %conv.i.i = xor i8 %9, 1
  br label %_ZNK6icu_7513UnicodeString7compareEiiRKS0_ii.exit

if.else.i.i:                                      ; preds = %land.lhs.true
  %cmp.i.i.i.i.i = icmp slt i16 %6, 0
  %10 = ashr i16 %6, 5
  %shr.i.i.i.i.i = sext i16 %10 to i32
  %11 = load i32, ptr %fLength.i.i.i.i, align 4
  %cond.i.i.i.i = select i1 %cmp.i.i.i.i.i, i32 %11, i32 %shr.i.i.i.i.i
  %cmp.i.i.i = icmp slt i32 %prevIndex.0.ph, 0
  %spec.select.i.i = tail call i32 @llvm.smin.i32(i32 %cond.i.i.i.i, i32 %prevIndex.0.ph)
  %srcStart.addr.0.i.i = select i1 %cmp.i.i.i, i32 0, i32 %spec.select.i.i
  %cmp5.i.i.i = icmp slt i32 %sub, 0
  %sub.i.i.i = sub nsw i32 %cond.i.i.i.i, %srcStart.addr.0.i.i
  %spec.select9.i.i = tail call i32 @llvm.smin.i32(i32 %sub.i.i.i, i32 %sub)
  %srcLength.addr.0.i.i = select i1 %cmp5.i.i.i, i32 0, i32 %spec.select9.i.i
  %12 = and i16 %6, 2
  %tobool.not.i.i.i = icmp eq i16 %12, 0
  %13 = load ptr, ptr %fArray.i.i.i, align 8
  %cond.i.i.i = select i1 %tobool.not.i.i.i, ptr %13, ptr %fBuffer.i.i.i
  %call5.i.i = tail call noundef signext i8 @_ZNK6icu_7513UnicodeString9doCompareEiiPKDsii(ptr noundef nonnull align 8 dereferenceable(64) %source, i32 noundef %sourceOffset, i32 noundef %sub, ptr noundef %cond.i.i.i, i32 noundef %srcStart.addr.0.i.i, i32 noundef %srcLength.addr.0.i.i)
  br label %_ZNK6icu_7513UnicodeString7compareEiiRKS0_ii.exit

_ZNK6icu_7513UnicodeString7compareEiiRKS0_ii.exit: ; preds = %if.then.i.i, %if.else.i.i
  %retval.0.i.i = phi i8 [ %conv.i.i, %if.then.i.i ], [ %call5.i.i, %if.else.i.i ]
  %cmp9.not = icmp eq i8 %retval.0.i.i, 0
  br i1 %cmp9.not, label %if.end, label %return

if.end:                                           ; preds = %_ZNK6icu_7513UnicodeString7compareEiiRKS0_ii.exit, %if.then
  %add = add nsw i32 %sub, %matchingSourceLength.0.ph
  br i1 %3, label %return, label %if.end13

if.end13:                                         ; preds = %if.end
  %14 = load i32, ptr %index.i17, align 4
  %length.i19 = getelementptr inbounds i8, ptr %arrayidx.i16, i64 8
  %15 = load i16, ptr %length.i19, align 4
  %conv.i20 = zext i16 %15 to i32
  %add.i21 = add nsw i32 %14, %conv.i20
  %.pre.pre = load ptr, ptr %parts.i, align 8
  br label %for.cond.outer, !llvm.loop !14

return:                                           ; preds = %if.end, %_ZNK6icu_7513UnicodeString7compareEiiRKS0_ii.exit
  %retval.0 = phi i32 [ -1, %_ZNK6icu_7513UnicodeString7compareEiiRKS0_ii.exit ], [ %add, %if.end ]
  ret i32 %retval.0
}